target datalayout = "e-m:e-p270:32:32-p271:32:32-p272:64:64-i64:64-i128:128-f80:128-n8:16:32:64-S128"
target triple = "x86_64-pc-linux-gnu"

%struct.store_engine = type { %union.pthread_mutex_t, ptr, ptr, ptr, ptr, ptr, ptr, ptr, i64, i32, i32, i32, i32, i32, i32, i32, i32, %union.pthread_mutex_t, %struct.extstore_stats, %struct.store_maint }
%union.pthread_mutex_t = type { %struct.__pthread_mutex_s }
%struct.__pthread_mutex_s = type { i32, i32, i32, i32, i32, i16, i16, %struct.__pthread_internal_list }
%struct.__pthread_internal_list = type { ptr, ptr }
%struct.extstore_stats = type { i64, i64, i64, i64, i64, i64, i64, i64, i64, i64, i64, i64, i64, i64, i64, i64, i64, ptr }
%struct.store_maint = type { %union.pthread_mutex_t }
%struct._store_page = type { %union.pthread_mutex_t, i64, i64, i64, i32, i32, i32, i32, i32, i32, i32, i16, i8, i8, i8, ptr, ptr }

; Function Attrs: nounwind uwtable
define internal void @_free_page(ptr noundef %0, ptr noundef %1) #0 {
  %3 = alloca ptr, align 8
  %4 = alloca ptr, align 8
  %5 = alloca ptr, align 8
  %6 = alloca ptr, align 8
  store ptr %0, ptr %3, align 8, !tbaa !10
  store ptr %1, ptr %4, align 8, !tbaa !40
  call void @llvm.lifetime.start.p0(i64 8, ptr %5) #8
  store ptr null, ptr %5, align 8, !tbaa !40
  call void @llvm.lifetime.start.p0(i64 8, ptr %6) #8
  store ptr null, ptr %6, align 8, !tbaa !40
  %7 = load ptr, ptr %3, align 8, !tbaa !10
  %8 = getelementptr inbounds nuw %struct.store_engine, ptr %7, i32 0, i32 17
  %9 = call i32 @pthread_mutex_lock(ptr noundef %8) #8
  %10 = load ptr, ptr %4, align 8, !tbaa !40
  %11 = getelementptr inbounds nuw %struct._store_page, ptr %10, i32 0, i32 1
  %12 = load i64, ptr %11, align 8, !tbaa !57
  %13 = load ptr, ptr %3, align 8, !tbaa !10
  %14 = getelementptr inbounds nuw %struct.store_engine, ptr %13, i32 0, i32 18
  %15 = getelementptr inbounds nuw %struct.extstore_stats, ptr %14, i32 0, i32 10
  %16 = load i64, ptr %15, align 8, !tbaa !63
  %17 = sub i64 %16, %12
  store i64 %17, ptr %15, align 8, !tbaa !63
  %18 = load ptr, ptr %4, align 8, !tbaa !40
  %19 = getelementptr inbounds nuw %struct._store_page, ptr %18, i32 0, i32 2
  %20 = load i64, ptr %19, align 8, !tbaa !50
  %21 = load ptr, ptr %3, align 8, !tbaa !10
  %22 = getelementptr inbounds nuw %struct.store_engine, ptr %21, i32 0, i32 18
  %23 = getelementptr inbounds nuw %struct.extstore_stats, ptr %22, i32 0, i32 14
  %24 = load i64, ptr %23, align 8, !tbaa !64
  %25 = sub i64 %24, %20
  store i64 %25, ptr %23, align 8, !tbaa !64
  %26 = load ptr, ptr %3, align 8, !tbaa !10
  %27 = getelementptr inbounds nuw %struct.store_engine, ptr %26, i32 0, i32 18
  %28 = getelementptr inbounds nuw %struct.extstore_stats, ptr %27, i32 0, i32 3
  %29 = load i64, ptr %28, align 8, !tbaa !65
  %30 = add i64 %29, 1
  store i64 %30, ptr %28, align 8, !tbaa !65
  %31 = load ptr, ptr %3, align 8, !tbaa !10
  %32 = getelementptr inbounds nuw %struct.store_engine, ptr %31, i32 0, i32 17
  %33 = call i32 @pthread_mutex_unlock(ptr noundef %32) #8
  %34 = load ptr, ptr %3, align 8, !tbaa !10
  %35 = getelementptr inbounds nuw %struct.store_engine, ptr %34, i32 0, i32 0
  %36 = call i32 @pthread_mutex_lock(ptr noundef %35) #8
  %37 = load ptr, ptr %3, align 8, !tbaa !10
  %38 = getelementptr inbounds nuw %struct.store_engine, ptr %37, i32 0, i32 6
  %39 = load ptr, ptr %38, align 8, !tbaa !66
  %40 = load ptr, ptr %4, align 8, !tbaa !40
  %41 = getelementptr inbounds nuw %struct._store_page, ptr %40, i32 0, i32 8
  %42 = load i32, ptr %41, align 8, !tbaa !59
  %43 = zext i32 %42 to i64
  %44 = getelementptr inbounds nuw ptr, ptr %39, i64 %43
  %45 = load ptr, ptr %44, align 8, !tbaa !40
  store ptr %45, ptr %5, align 8, !tbaa !40
  br label %46

46:                                               ; preds = %77, %2
  %47 = load ptr, ptr %5, align 8, !tbaa !40
  %48 = icmp ne ptr %47, null
  br i1 %48, label %49, label %82

49:                                               ; preds = %46
  %50 = load ptr, ptr %5, align 8, !tbaa !40
  %51 = load ptr, ptr %4, align 8, !tbaa !40
  %52 = icmp eq ptr %50, %51
  br i1 %52, label %53, label %77

53:                                               ; preds = %49
  %54 = load ptr, ptr %6, align 8, !tbaa !40
  %55 = icmp ne ptr %54, null
  br i1 %55, label %56, label %62

56:                                               ; preds = %53
  %57 = load ptr, ptr %5, align 8, !tbaa !40
  %58 = getelementptr inbounds nuw %struct._store_page, ptr %57, i32 0, i32 16
  %59 = load ptr, ptr %58, align 8, !tbaa !67
  %60 = load ptr, ptr %6, align 8, !tbaa !40
  %61 = getelementptr inbounds nuw %struct._store_page, ptr %60, i32 0, i32 16
  store ptr %59, ptr %61, align 8, !tbaa !67
  br label %74

62:                                               ; preds = %53
  %63 = load ptr, ptr %5, align 8, !tbaa !40
  %64 = getelementptr inbounds nuw %struct._store_page, ptr %63, i32 0, i32 16
  %65 = load ptr, ptr %64, align 8, !tbaa !67
  %66 = load ptr, ptr %3, align 8, !tbaa !10
  %67 = getelementptr inbounds nuw %struct.store_engine, ptr %66, i32 0, i32 6
  %68 = load ptr, ptr %67, align 8, !tbaa !66
  %69 = load ptr, ptr %4, align 8, !tbaa !40
  %70 = getelementptr inbounds nuw %struct._store_page, ptr %69, i32 0, i32 8
  %71 = load i32, ptr %70, align 8, !tbaa !59
  %72 = zext i32 %71 to i64
  %73 = getelementptr inbounds nuw ptr, ptr %68, i64 %72
  store ptr %65, ptr %73, align 8, !tbaa !40
  br label %74

74:                                               ; preds = %62, %56
  %75 = load ptr, ptr %5, align 8, !tbaa !40
  %76 = getelementptr inbounds nuw %struct._store_page, ptr %75, i32 0, i32 16
  store ptr null, ptr %76, align 8, !tbaa !67
  br label %82

77:                                               ; preds = %49
  %78 = load ptr, ptr %5, align 8, !tbaa !40
  store ptr %78, ptr %6, align 8, !tbaa !40
  %79 = load ptr, ptr %5, align 8, !tbaa !40
  %80 = getelementptr inbounds nuw %struct._store_page, ptr %79, i32 0, i32 16
  %81 = load ptr, ptr %80, align 8, !tbaa !67
  store ptr %81, ptr %5, align 8, !tbaa !40
  br label %46, !llvm.loop !68

82:                                               ; preds = %74, %46
  %83 = load ptr, ptr %4, align 8, !tbaa !40
  %84 = getelementptr inbounds nuw %struct._store_page, ptr %83, i32 0, i32 4
  store i32 0, ptr %84, align 8, !tbaa !48
  %85 = load ptr, ptr %4, align 8, !tbaa !40
  %86 = getelementptr inbounds nuw %struct._store_page, ptr %85, i32 0, i32 1
  store i64 0, ptr %86, align 8, !tbaa !57
  %87 = load ptr, ptr %4, align 8, !tbaa !40
  %88 = getelementptr inbounds nuw %struct._store_page, ptr %87, i32 0, i32 2
  store i64 0, ptr %88, align 8, !tbaa !50
  %89 = load ptr, ptr %4, align 8, !tbaa !40
  %90 = getelementptr inbounds nuw %struct._store_page, ptr %89, i32 0, i32 6
  store i32 0, ptr %90, align 8, !tbaa !69
  %91 = load ptr, ptr %4, align 8, !tbaa !40
  %92 = getelementptr inbounds nuw %struct._store_page, ptr %91, i32 0, i32 7
  store i32 0, ptr %92, align 4, !tbaa !70
  %93 = load ptr, ptr %4, align 8, !tbaa !40
  %94 = getelementptr inbounds nuw %struct._store_page, ptr %93, i32 0, i32 8
  store i32 0, ptr %94, align 8, !tbaa !59
  %95 = load ptr, ptr %4, align 8, !tbaa !40
  %96 = getelementptr inbounds nuw %struct._store_page, ptr %95, i32 0, i32 12
  store i8 0, ptr %96, align 2, !tbaa !52
  %97 = load ptr, ptr %4, align 8, !tbaa !40
  %98 = getelementptr inbounds nuw %struct._store_page, ptr %97, i32 0, i32 13
  store i8 0, ptr %98, align 1, !tbaa !58
  %99 = load ptr, ptr %4, align 8, !tbaa !40
  %100 = getelementptr inbounds nuw %struct._store_page, ptr %99, i32 0, i32 14
  store i8 1, ptr %100, align 8, !tbaa !56
  %101 = load ptr, ptr %3, align 8, !tbaa !10
  %102 = getelementptr inbounds nuw %struct.store_engine, ptr %101, i32 0, i32 7
  %103 = load ptr, ptr %102, align 8, !tbaa !71
  %104 = load ptr, ptr %4, align 8, !tbaa !40
  %105 = getelementptr inbounds nuw %struct._store_page, ptr %104, i32 0, i32 9
  %106 = load i32, ptr %105, align 4, !tbaa !41
  %107 = zext i32 %106 to i64
  %108 = getelementptr inbounds nuw ptr, ptr %103, i64 %107
  %109 = load ptr, ptr %108, align 8, !tbaa !40
  %110 = load ptr, ptr %4, align 8, !tbaa !40
  %111 = getelementptr inbounds nuw %struct._store_page, ptr %110, i32 0, i32 16
  store ptr %109, ptr %111, align 8, !tbaa !67
  %112 = load ptr, ptr %4, align 8, !tbaa !40
  %113 = load ptr, ptr %3, align 8, !tbaa !10
  %114 = getelementptr inbounds nuw %struct.store_engine, ptr %113, i32 0, i32 7
  %115 = load ptr, ptr %114, align 8, !tbaa !71
  %116 = load ptr, ptr %4, align 8, !tbaa !40
  %117 = getelementptr inbounds nuw %struct._store_page, ptr %116, i32 0, i32 9
  %118 = load i32, ptr %117, align 4, !tbaa !41
  %119 = zext i32 %118 to i64
  %120 = getelementptr inbounds nuw ptr, ptr %115, i64 %119
  store ptr %112, ptr %120, align 8, !tbaa !40
  %121 = load ptr, ptr %3, align 8, !tbaa !10
  %122 = getelementptr inbounds nuw %struct.store_engine, ptr %121, i32 0, i32 13
  %123 = load i32, ptr %122, align 8, !tbaa !12
  %124 = add i32 %123, 1
  store i32 %124, ptr %122, align 8, !tbaa !12
  %125 = load ptr, ptr %3, align 8, !tbaa !10
  %126 = getelementptr inbounds nuw %struct.store_engine, ptr %125, i32 0, i32 0
  %127 = call i32 @pthread_mutex_unlock(ptr noundef %126) #8
  call void @llvm.lifetime.end.p0(i64 8, ptr %6) #8
  call void @llvm.lifetime.end.p0(i64 8, ptr %5) #8
  ret void
}