; Function Attrs: nounwind uwtable
define internal fastcc void @_free_page(ptr noundef %0, ptr noundef %1) unnamed_addr #0 {
  %3 = getelementptr inbounds nuw i8, ptr %0, i64 136
  %4 = tail call i32 @pthread_mutex_lock(ptr noundef nonnull %3) #13
  %5 = getelementptr inbounds nuw i8, ptr %1, i64 40
  %6 = load i64, ptr %5, align 8, !tbaa !50
  %7 = getelementptr inbounds nuw i8, ptr %0, i64 256
  %8 = load i64, ptr %7, align 8, !tbaa !56
  %9 = sub i64 %8, %6
  store i64 %9, ptr %7, align 8, !tbaa !56
  %10 = getelementptr inbounds nuw i8, ptr %1, i64 48
  %11 = load i64, ptr %10, align 8, !tbaa !43
  %12 = getelementptr inbounds nuw i8, ptr %0, i64 288
  %13 = load i64, ptr %12, align 8, !tbaa !57
  %14 = sub i64 %13, %11
  store i64 %14, ptr %12, align 8, !tbaa !57
  %15 = getelementptr inbounds nuw i8, ptr %0, i64 200
  %16 = load i64, ptr %15, align 8, !tbaa !58
  %17 = add i64 %16, 1
  store i64 %17, ptr %15, align 8, !tbaa !58
  %18 = tail call i32 @pthread_mutex_unlock(ptr noundef nonnull %3) #13
  %19 = tail call i32 @pthread_mutex_lock(ptr noundef %0) #13
  %20 = getelementptr inbounds nuw i8, ptr %0, i64 80
  %21 = load ptr, ptr %20, align 8, !tbaa !59
  %22 = getelementptr inbounds nuw i8, ptr %1, i64 80
  %23 = load i32, ptr %22, align 8, !tbaa !52
  %24 = zext i32 %23 to i64
  %25 = getelementptr inbounds nuw ptr, ptr %21, i64 %24
  %.03943 = load ptr, ptr %25, align 8, !tbaa !60
  %.not44 = icmp eq ptr %.03943, null
  br i1 %.not44, label %.loopexit, label %.lr.ph.preheader

.lr.ph.preheader:                                 ; preds = %2
  %26 = icmp eq ptr %.03943, %1
  br i1 %26, label %.lr.ph._crit_edge, label %.lr.ph54

.lr.ph:                                           ; preds = %.lr.ph54
  %27 = icmp eq ptr %.039, %1
  br i1 %27, label %.lr.ph._crit_edge, label %.lr.ph54, !llvm.loop !61

.lr.ph._crit_edge:                                ; preds = %.lr.ph, %.lr.ph.preheader
  %.03946.lcssa = phi ptr [ %.03943, %.lr.ph.preheader ], [ %.039, %.lr.ph ]
  %.045.lcssa = phi ptr [ null, %.lr.ph.preheader ], [ %.0394653, %.lr.ph ]
  %.not40 = icmp eq ptr %.045.lcssa, null
  %28 = getelementptr inbounds nuw i8, ptr %.03946.lcssa, i64 112
  %29 = load ptr, ptr %28, align 8, !tbaa !62
  br i1 %.not40, label %32, label %30

30:                                               ; preds = %.lr.ph._crit_edge
  %31 = getelementptr inbounds nuw i8, ptr %.045.lcssa, i64 112
  store ptr %29, ptr %31, align 8, !tbaa !62
  br label %33

32:                                               ; preds = %.lr.ph._crit_edge
  store ptr %29, ptr %25, align 8, !tbaa !60
  br label %33

33:                                               ; preds = %32, %30
  %34 = getelementptr inbounds nuw i8, ptr %.03946.lcssa, i64 112
  store ptr null, ptr %34, align 8, !tbaa !62
  br label %.loopexit

.lr.ph54:                                         ; preds = %.lr.ph.preheader, %.lr.ph
  %.0394653 = phi ptr [ %.039, %.lr.ph ], [ %.03943, %.lr.ph.preheader ]
  %35 = getelementptr inbounds nuw i8, ptr %.0394653, i64 112
  %.039 = load ptr, ptr %35, align 8, !tbaa !60
  %.not = icmp eq ptr %.039, null
  br i1 %.not, label %.loopexit, label %.lr.ph, !llvm.loop !61

.loopexit:                                        ; preds = %.lr.ph54, %2, %33
  %36 = getelementptr inbounds nuw i8, ptr %1, i64 64
  store i32 0, ptr %36, align 8, !tbaa !41
  %37 = getelementptr inbounds nuw i8, ptr %1, i64 72
  store i32 0, ptr %37, align 8, !tbaa !63
  %38 = getelementptr inbounds nuw i8, ptr %1, i64 76
  store i32 0, ptr %38, align 4, !tbaa !64
  store i32 0, ptr %22, align 8, !tbaa !52
  %39 = getelementptr inbounds nuw i8, ptr %1, i64 94
  store i8 0, ptr %39, align 2, !tbaa !45
  %40 = getelementptr inbounds nuw i8, ptr %1, i64 95
  store i8 0, ptr %40, align 1, !tbaa !51
  %41 = getelementptr inbounds nuw i8, ptr %1, i64 96
  tail call void @llvm.memset.p0.i64(ptr noundef nonnull align 8 dereferenceable(16) %5, i8 0, i64 16, i1 false)
  store i8 1, ptr %41, align 8, !tbaa !49
  %42 = getelementptr inbounds nuw i8, ptr %0, i64 88
  %43 = load ptr, ptr %42, align 8, !tbaa !65
  %44 = getelementptr inbounds nuw i8, ptr %1, i64 84
  %45 = load i32, ptr %44, align 4, !tbaa !34
  %46 = zext i32 %45 to i64
  %47 = getelementptr inbounds nuw ptr, ptr %43, i64 %46
  %48 = load ptr, ptr %47, align 8, !tbaa !60
  %49 = getelementptr inbounds nuw i8, ptr %1, i64 112
  store ptr %48, ptr %49, align 8, !tbaa !62
  store ptr %1, ptr %47, align 8, !tbaa !60
  %50 = getelementptr inbounds nuw i8, ptr %0, i64 120
  %51 = load i32, ptr %50, align 8, !tbaa !4
  %52 = add i32 %51, 1
  store i32 %52, ptr %50, align 8, !tbaa !4
  %53 = tail call i32 @pthread_mutex_unlock(ptr noundef %0) #13
  ret void
}